target datalayout = "e-m:e-p270:32:32-p271:32:32-p272:64:64-i64:64-i128:128-f80:128-n8:16:32:64-S128"
target triple = "x86_64-pc-linux-gnu"

%"class.llvm::StringRef" = type { ptr, i64 }
%"class.llvm::SmallVectorBase" = type { ptr, i32, i32 }
%"class.llvm::LiveIntervals" = type { ptr, ptr, ptr, ptr, ptr, ptr, %"class.std::unique_ptr", %"class.llvm::BumpPtrAllocatorImpl", %"class.llvm::IndexedMap", %"class.llvm::SmallVector.13", %"class.llvm::SmallVector.18", %"class.llvm::SmallVector.23", %"class.llvm::SmallVector.28" }
%"class.std::unique_ptr" = type { %"struct.std::__uniq_ptr_data" }
%"struct.std::__uniq_ptr_data" = type { %"class.std::__uniq_ptr_impl" }
%"class.std::__uniq_ptr_impl" = type { %"class.std::tuple" }
%"class.std::tuple" = type { %"struct.std::_Tuple_impl" }
%"struct.std::_Tuple_impl" = type { %"struct.std::_Head_base.1" }
%"struct.std::_Head_base.1" = type { ptr }
%"class.llvm::BumpPtrAllocatorImpl" = type { ptr, ptr, %"class.llvm::SmallVector", %"class.llvm::SmallVector.3", i64, i64 }
%"class.llvm::SmallVector" = type { %"class.llvm::SmallVectorImpl", %"struct.llvm::SmallVectorStorage" }
%"class.llvm::SmallVectorImpl" = type { %"class.llvm::SmallVectorTemplateBase" }
%"class.llvm::SmallVectorTemplateBase" = type { %"class.llvm::SmallVectorTemplateCommon" }
%"class.llvm::SmallVectorTemplateCommon" = type { %"class.llvm::SmallVectorBase" }
%"struct.llvm::SmallVectorStorage" = type { [32 x i8] }
%"class.llvm::SmallVector.3" = type { %"class.llvm::SmallVectorImpl.4" }
%"class.llvm::SmallVectorImpl.4" = type { %"class.llvm::SmallVectorTemplateBase.5" }
%"class.llvm::SmallVectorTemplateBase.5" = type { %"class.llvm::SmallVectorTemplateCommon.6" }
%"class.llvm::SmallVectorTemplateCommon.6" = type { %"class.llvm::SmallVectorBase" }
%"class.llvm::IndexedMap" = type <{ %"class.llvm::SmallVector.8", ptr, [8 x i8] }>
%"class.llvm::SmallVector.8" = type { %"class.llvm::SmallVectorImpl.9" }
%"class.llvm::SmallVectorImpl.9" = type { %"class.llvm::SmallVectorTemplateBase.10" }
%"class.llvm::SmallVectorTemplateBase.10" = type { %"class.llvm::SmallVectorTemplateCommon.11" }
%"class.llvm::SmallVectorTemplateCommon.11" = type { %"class.llvm::SmallVectorBase" }
%"class.llvm::SmallVector.13" = type { %"class.llvm::SmallVectorImpl.14", %"struct.llvm::SmallVectorStorage.17" }
%"class.llvm::SmallVectorImpl.14" = type { %"class.llvm::SmallVectorTemplateBase.15" }
%"class.llvm::SmallVectorTemplateBase.15" = type { %"class.llvm::SmallVectorTemplateCommon.16" }
%"class.llvm::SmallVectorTemplateCommon.16" = type { %"class.llvm::SmallVectorBase" }
%"struct.llvm::SmallVectorStorage.17" = type { [64 x i8] }
%"class.llvm::SmallVector.18" = type { %"class.llvm::SmallVectorImpl.19", %"struct.llvm::SmallVectorStorage.22" }
%"class.llvm::SmallVectorImpl.19" = type { %"class.llvm::SmallVectorTemplateBase.20" }
%"class.llvm::SmallVectorTemplateBase.20" = type { %"class.llvm::SmallVectorTemplateCommon.21" }
%"class.llvm::SmallVectorTemplateCommon.21" = type { %"class.llvm::SmallVectorBase" }
%"struct.llvm::SmallVectorStorage.22" = type { [64 x i8] }
%"class.llvm::SmallVector.23" = type { %"class.llvm::SmallVectorImpl.24", %"struct.llvm::SmallVectorStorage.27" }
%"class.llvm::SmallVectorImpl.24" = type { %"class.llvm::SmallVectorTemplateBase.25" }
%"class.llvm::SmallVectorTemplateBase.25" = type { %"class.llvm::SmallVectorTemplateCommon.26" }
%"class.llvm::SmallVectorTemplateCommon.26" = type { %"class.llvm::SmallVectorBase" }
%"struct.llvm::SmallVectorStorage.27" = type { [64 x i8] }
%"class.llvm::SmallVector.28" = type { %"class.llvm::SmallVectorImpl.29" }
%"class.llvm::SmallVectorImpl.29" = type { %"class.llvm::SmallVectorTemplateBase.30" }
%"class.llvm::SmallVectorTemplateBase.30" = type { %"class.llvm::SmallVectorTemplateCommon.31" }
%"class.llvm::SmallVectorTemplateCommon.31" = type { %"class.llvm::SmallVectorBase" }
%"class.llvm::raw_ostream" = type { ptr, i32, ptr, ptr, ptr, i8, i32 }

@.str.6 = private unnamed_addr constant [37 x i8] c"********** MACHINEINSTRS **********\0A\00", align 1

; Function Attrs: mustprogress nounwind uwtable
define linkonce_odr hidden noundef ptr @_ZNK4llvm9StringRef4dataEv(ptr noundef nonnull align 8 dereferenceable(16) %0) #0 comdat align 2 {
  %2 = alloca ptr, align 8
  store ptr %0, ptr %2, align 8
  %3 = load ptr, ptr %2, align 8
  %4 = getelementptr inbounds nuw %"class.llvm::StringRef", ptr %3, i32 0, i32 0
  %5 = load ptr, ptr %4, align 8
  ret ptr %5
}

; Function Attrs: mustprogress nounwind uwtable
define linkonce_odr hidden noundef i64 @_ZNK4llvm9StringRef4sizeEv(ptr noundef nonnull align 8 dereferenceable(16) %0) #0 comdat align 2 {
  %2 = alloca ptr, align 8
  store ptr %0, ptr %2, align 8
  %3 = load ptr, ptr %2, align 8
  %4 = getelementptr inbounds nuw %"class.llvm::StringRef", ptr %3, i32 0, i32 1
  %5 = load i64, ptr %4, align 8
  ret i64 %5
}

; Function Attrs: mustprogress nounwind uwtable
define linkonce_odr hidden noundef i64 @_ZNSt11char_traitsIcE6lengthEPKc(ptr noundef %0) #0 comdat align 2 {
  %2 = alloca ptr, align 8
  store ptr %0, ptr %2, align 8
  %3 = load ptr, ptr %2, align 8
  %4 = call i64 @strlen(ptr noundef %3) #3
  ret i64 %4
}

; Function Attrs: mustprogress nounwind uwtable
define linkonce_odr hidden noundef nonnull align 8 dereferenceable(48) ptr @_ZN4llvm11raw_ostreamlsENS_9StringRefE(ptr noundef nonnull align 8 dereferenceable(48) %0, ptr %1, i64 %2) #0 comdat align 2 {
  %4 = alloca ptr, align 8
  %5 = alloca %"class.llvm::StringRef", align 8
  %6 = alloca ptr, align 8
  %7 = alloca i64, align 8
  %8 = getelementptr inbounds nuw { ptr, i64 }, ptr %5, i32 0, i32 0
  store ptr %1, ptr %8, align 8
  %9 = getelementptr inbounds nuw { ptr, i64 }, ptr %5, i32 0, i32 1
  store i64 %2, ptr %9, align 8
  store ptr %0, ptr %6, align 8
  %10 = load ptr, ptr %6, align 8
  %11 = call noundef i64 @_ZNK4llvm9StringRef4sizeEv(ptr noundef nonnull align 8 dereferenceable(16) %5)
  store i64 %11, ptr %7, align 8
  %12 = load i64, ptr %7, align 8
  %13 = getelementptr inbounds nuw %"class.llvm::raw_ostream", ptr %10, i32 0, i32 3
  %14 = load ptr, ptr %13, align 8
  %15 = getelementptr inbounds nuw %"class.llvm::raw_ostream", ptr %10, i32 0, i32 4
  %16 = load ptr, ptr %15, align 8
  %17 = ptrtoint ptr %14 to i64
  %18 = ptrtoint ptr %16 to i64
  %19 = sub i64 %17, %18
  %20 = icmp ugt i64 %12, %19
  br i1 %20, label %21, label %25

21:                                               ; preds = %3
  %22 = call noundef ptr @_ZNK4llvm9StringRef4dataEv(ptr noundef nonnull align 8 dereferenceable(16) %5)
  %23 = load i64, ptr %7, align 8
  %24 = call noundef nonnull align 8 dereferenceable(48) ptr @_ZN4llvm11raw_ostream5writeEPKcm(ptr noundef nonnull align 8 dereferenceable(48) %10, ptr noundef %22, i64 noundef %23)
  store ptr %24, ptr %4, align 8
  br label %38

25:                                               ; preds = %3
  %26 = load i64, ptr %7, align 8
  %27 = icmp ne i64 %26, 0
  br i1 %27, label %28, label %37

28:                                               ; preds = %25
  %29 = getelementptr inbounds nuw %"class.llvm::raw_ostream", ptr %10, i32 0, i32 4
  %30 = load ptr, ptr %29, align 8
  %31 = call noundef ptr @_ZNK4llvm9StringRef4dataEv(ptr noundef nonnull align 8 dereferenceable(16) %5)
  %32 = load i64, ptr %7, align 8
  call void @llvm.memcpy.p0.p0.i64(ptr align 1 %30, ptr align 1 %31, i64 %32, i1 false)
  %33 = load i64, ptr %7, align 8
  %34 = getelementptr inbounds nuw %"class.llvm::raw_ostream", ptr %10, i32 0, i32 4
  %35 = load ptr, ptr %34, align 8
  %36 = getelementptr inbounds i8, ptr %35, i64 %33
  store ptr %36, ptr %34, align 8
  br label %37

37:                                               ; preds = %28, %25
  store ptr %10, ptr %4, align 8
  br label %38

38:                                               ; preds = %37, %21
  %39 = load ptr, ptr %4, align 8
  ret ptr %39
}

; Function Attrs: mustprogress nounwind uwtable
define linkonce_odr hidden void @_ZN4llvm9StringRefC2EPKc(ptr noundef nonnull align 8 dereferenceable(16) %0, ptr noundef %1) unnamed_addr #0 comdat align 2 {
  %3 = alloca ptr, align 8
  %4 = alloca ptr, align 8
  store ptr %0, ptr %3, align 8
  store ptr %1, ptr %4, align 8
  %5 = load ptr, ptr %3, align 8
  %6 = getelementptr inbounds nuw %"class.llvm::StringRef", ptr %5, i32 0, i32 0
  %7 = load ptr, ptr %4, align 8
  store ptr %7, ptr %6, align 8
  %8 = getelementptr inbounds nuw %"class.llvm::StringRef", ptr %5, i32 0, i32 1
  %9 = load ptr, ptr %4, align 8
  %10 = icmp ne ptr %9, null
  br i1 %10, label %11, label %14

11:                                               ; preds = %2
  %12 = load ptr, ptr %4, align 8
  %13 = call noundef i64 @_ZNSt11char_traitsIcE6lengthEPKc(ptr noundef %12)
  br label %15

14:                                               ; preds = %2
  br label %15

15:                                               ; preds = %14, %11
  %16 = phi i64 [ %13, %11 ], [ 0, %14 ]
  store i64 %16, ptr %8, align 8
  ret void
}

; Function Attrs: mustprogress nounwind uwtable
define linkonce_odr hidden noundef nonnull align 8 dereferenceable(48) ptr @_ZN4llvm11raw_ostreamlsEPKc(ptr noundef nonnull align 8 dereferenceable(48) %0, ptr noundef %1) #0 comdat align 2 {
  %3 = alloca ptr, align 8
  %4 = alloca ptr, align 8
  %5 = alloca %"class.llvm::StringRef", align 8
  store ptr %0, ptr %3, align 8
  store ptr %1, ptr %4, align 8
  %6 = load ptr, ptr %3, align 8
  %7 = load ptr, ptr %4, align 8
  call void @_ZN4llvm9StringRefC2EPKc(ptr noundef nonnull align 8 dereferenceable(16) %5, ptr noundef %7)
  %8 = getelementptr inbounds nuw { ptr, i64 }, ptr %5, i32 0, i32 0
  %9 = load ptr, ptr %8, align 8
  %10 = getelementptr inbounds nuw { ptr, i64 }, ptr %5, i32 0, i32 1
  %11 = load i64, ptr %10, align 8
  %12 = call noundef nonnull align 8 dereferenceable(48) ptr @_ZN4llvm11raw_ostreamlsENS_9StringRefE(ptr noundef nonnull align 8 dereferenceable(48) %6, ptr %9, i64 %11)
  ret ptr %12
}

; Function Attrs: mustprogress nounwind uwtable
define dso_local void @_ZNK4llvm13LiveIntervals11printInstrsERNS_11raw_ostreamE(ptr noundef nonnull align 8 dereferenceable(440) %0, ptr noundef nonnull align 8 dereferenceable(48) %1) #0 align 2 {
  %3 = alloca ptr, align 8
  %4 = alloca ptr, align 8
  store ptr %0, ptr %3, align 8
  store ptr %1, ptr %4, align 8
  %5 = load ptr, ptr %3, align 8
  %6 = load ptr, ptr %4, align 8
  %7 = call noundef nonnull align 8 dereferenceable(48) ptr @_ZN4llvm11raw_ostreamlsEPKc(ptr noundef nonnull align 8 dereferenceable(48) %6, ptr noundef @.str.6)
  %8 = getelementptr inbounds nuw %"class.llvm::LiveIntervals", ptr %5, i32 0, i32 0
  %9 = load ptr, ptr %8, align 8
  %10 = load ptr, ptr %4, align 8
  %11 = getelementptr inbounds nuw %"class.llvm::LiveIntervals", ptr %5, i32 0, i32 4
  %12 = load ptr, ptr %11, align 8
  call void @_ZNK4llvm15MachineFunction5printERNS_11raw_ostreamEPKNS_11SlotIndexesE(ptr noundef nonnull align 8 dereferenceable(1041) %9, ptr noundef nonnull align 8 dereferenceable(48) %10, ptr noundef %12)
  ret void
}